#include <math.h>
#include <stdio.h>
#include <stdlib.h>
#include <string.h>

int main(){
    int i,k;
    char a[200];
    gets(a);
    for(i=0;a[i]!='\0';i++){
        while(a[i]==' '&&a[i+1]==' '){
            for(k=i;a[k]!='\0';k++){
                a[k]=a[k+1];
            }
        }
    }
    for(i=0;a[i]!='\0';i++){
        printf("%c",a[i]);
    }
    return 0;
}


