; ModuleID = '26/1294.c'
source_filename = "26/1294.c"
target datalayout = "e-m:e-p270:32:32-p271:32:32-p272:64:64-i64:64-f80:128-n8:16:32:64-S128"
target triple = "x86_64-pc-linux-gnu"

@.str = private unnamed_addr constant [3 x i8] c"%c\00", align 1

; Function Attrs: noinline nounwind uwtable
define dso_local i32 @main() #0 {
  %1 = alloca i32, align 4
  %2 = alloca i32, align 4
  %3 = alloca i32, align 4
  %4 = alloca [200 x i8], align 16
  store i32 0, i32* %1, align 4
  %5 = getelementptr inbounds [200 x i8], [200 x i8]* %4, i64 0, i64 0
  %6 = call i32 (i8*, ...) bitcast (i32 (...)* @gets to i32 (i8*, ...)*)(i8* %5)
  store i32 0, i32* %2, align 4
  br label %7

7:                                                ; preds = %55, %0
  %8 = load i32, i32* %2, align 4
  %9 = sext i32 %8 to i64
  %10 = getelementptr inbounds [200 x i8], [200 x i8]* %4, i64 0, i64 %9
  %11 = load i8, i8* %10, align 1
  %12 = sext i8 %11 to i32
  %13 = icmp ne i32 %12, 0
  br i1 %13, label %14, label %58

14:                                               ; preds = %7
  br label %15

15:                                               ; preds = %53, %14
  %16 = load i32, i32* %2, align 4
  %17 = sext i32 %16 to i64
  %18 = getelementptr inbounds [200 x i8], [200 x i8]* %4, i64 0, i64 %17
  %19 = load i8, i8* %18, align 1
  %20 = sext i8 %19 to i32
  %21 = icmp eq i32 %20, 32
  br i1 %21, label %22, label %30

22:                                               ; preds = %15
  %23 = load i32, i32* %2, align 4
  %24 = add nsw i32 %23, 1
  %25 = sext i32 %24 to i64
  %26 = getelementptr inbounds [200 x i8], [200 x i8]* %4, i64 0, i64 %25
  %27 = load i8, i8* %26, align 1
  %28 = sext i8 %27 to i32
  %29 = icmp eq i32 %28, 32
  br label %30

30:                                               ; preds = %22, %15
  %31 = phi i1 [ false, %15 ], [ %29, %22 ]
  br i1 %31, label %32, label %54

32:                                               ; preds = %30
  %33 = load i32, i32* %2, align 4
  store i32 %33, i32* %3, align 4
  br label %34

34:                                               ; preds = %50, %32
  %35 = load i32, i32* %3, align 4
  %36 = sext i32 %35 to i64
  %37 = getelementptr inbounds [200 x i8], [200 x i8]* %4, i64 0, i64 %36
  %38 = load i8, i8* %37, align 1
  %39 = sext i8 %38 to i32
  %40 = icmp ne i32 %39, 0
  br i1 %40, label %41, label %53

41:                                               ; preds = %34
  %42 = load i32, i32* %3, align 4
  %43 = add nsw i32 %42, 1
  %44 = sext i32 %43 to i64
  %45 = getelementptr inbounds [200 x i8], [200 x i8]* %4, i64 0, i64 %44
  %46 = load i8, i8* %45, align 1
  %47 = load i32, i32* %3, align 4
  %48 = sext i32 %47 to i64
  %49 = getelementptr inbounds [200 x i8], [200 x i8]* %4, i64 0, i64 %48
  store i8 %46, i8* %49, align 1
  br label %50

50:                                               ; preds = %41
  %51 = load i32, i32* %3, align 4
  %52 = add nsw i32 %51, 1
  store i32 %52, i32* %3, align 4
  br label %34

53:                                               ; preds = %34
  br label %15

54:                                               ; preds = %30
  br label %55

55:                                               ; preds = %54
  %56 = load i32, i32* %2, align 4
  %57 = add nsw i32 %56, 1
  store i32 %57, i32* %2, align 4
  br label %7

58:                                               ; preds = %7
  store i32 0, i32* %2, align 4
  br label %59

59:                                               ; preds = %73, %58
  %60 = load i32, i32* %2, align 4
  %61 = sext i32 %60 to i64
  %62 = getelementptr inbounds [200 x i8], [200 x i8]* %4, i64 0, i64 %61
  %63 = load i8, i8* %62, align 1
  %64 = sext i8 %63 to i32
  %65 = icmp ne i32 %64, 0
  br i1 %65, label %66, label %76

66:                                               ; preds = %59
  %67 = load i32, i32* %2, align 4
  %68 = sext i32 %67 to i64
  %69 = getelementptr inbounds [200 x i8], [200 x i8]* %4, i64 0, i64 %68
  %70 = load i8, i8* %69, align 1
  %71 = sext i8 %70 to i32
  %72 = call i32 (i8*, ...) @printf(i8* getelementptr inbounds ([3 x i8], [3 x i8]* @.str, i64 0, i64 0), i32 %71)
  br label %73

73:                                               ; preds = %66
  %74 = load i32, i32* %2, align 4
  %75 = add nsw i32 %74, 1
  store i32 %75, i32* %2, align 4
  br label %59

76:                                               ; preds = %59
  ret i32 0
}

declare dso_local i32 @gets(...) #1

declare dso_local i32 @printf(i8*, ...) #1


!llvm.module.flags = !{!0}
!llvm.ident = !{!1}

!0 = !{i32 1, !"wchar_size", i32 4}
!1 = !{!"clang version 10.0.0-4ubuntu1 "}
